; Function Attrs: nounwind uwtable
define internal ptr @complex___complex__(ptr noundef %0, ptr readnone captures(none) %1) #9 {
  %3 = getelementptr i8, ptr %0, i64 8
  %.val.i = load ptr, ptr %3, align 8, !tbaa !8
  %.not.i = icmp eq ptr %.val.i, @PyComplex_Type
  br i1 %.not.i, label %4, label %9

4:                                                ; preds = %2
  %5 = load i32, ptr %0, align 8, !tbaa !12
  %6 = icmp slt i32 %5, 0
  br i1 %6, label %complex___complex___impl.exit, label %7

7:                                                ; preds = %4
  %8 = add nuw i32 %5, 1
  store i32 %8, ptr %0, align 8, !tbaa !12
  br label %complex___complex___impl.exit

9:                                                ; preds = %2
  %10 = getelementptr inbounds nuw i8, ptr %0, i64 16
  %11 = load double, ptr %10, align 8
  %12 = getelementptr inbounds nuw i8, ptr %0, i64 24
  %13 = load double, ptr %12, align 8
  %14 = tail call ptr @PyObject_Malloc(i64 noundef 32) #16
  %15 = icmp eq ptr %14, null
  br i1 %15, label %16, label %18

16:                                               ; preds = %9
  %17 = tail call ptr @PyErr_NoMemory() #16
  br label %complex___complex___impl.exit

18:                                               ; preds = %9
  %19 = getelementptr inbounds nuw i8, ptr %14, i64 8
  store ptr @PyComplex_Type, ptr %19, align 8, !tbaa !8
  %20 = load i32, ptr @PyComplex_Type, align 8, !tbaa !12
  %21 = icmp slt i32 %20, 0
  br i1 %21, label %_PyObject_Init.exit.i.i, label %22

22:                                               ; preds = %18
  %23 = add nuw i32 %20, 1
  store i32 %23, ptr @PyComplex_Type, align 8, !tbaa !12
  br label %_PyObject_Init.exit.i.i

_PyObject_Init.exit.i.i:                          ; preds = %22, %18
  tail call void @_Py_NewReference(ptr noundef nonnull %14) #16
  %24 = getelementptr inbounds nuw i8, ptr %14, i64 16
  store double %11, ptr %24, align 8, !tbaa !13
  %.sroa.2.0..sroa_idx.i.i = getelementptr inbounds nuw i8, ptr %14, i64 24
  store double %13, ptr %.sroa.2.0..sroa_idx.i.i, align 8, !tbaa !13
  br label %complex___complex___impl.exit

complex___complex___impl.exit:                    ; preds = %4, %7, %16, %_PyObject_Init.exit.i.i
  %.0.i = phi ptr [ %0, %4 ], [ %0, %7 ], [ %17, %16 ], [ %14, %_PyObject_Init.exit.i.i ]
  ret ptr %.0.i
}